target datalayout = "e-m:e-p270:32:32-p271:32:32-p272:64:64-i64:64-i128:128-f80:128-n8:16:32:64-S128"
target triple = "x86_64-unknown-linux-gnu"

%struct.grpc_resolved_address = type { [128 x i8], i32 }

; Function Attrs: mustprogress uwtable
define noundef zeroext i1 @_Z23set_matching_sd_inet_fdP15grpc_tcp_serverPK21grpc_resolved_addressiiii(ptr noundef %s, ptr noundef %addr, i32 noundef %family, i32 noundef %port, i32 noundef %fd_start, i32 noundef %n) #4 {
entry:
  %retval = alloca i1, align 1
  %s.addr = alloca ptr, align 8
  %addr.addr = alloca ptr, align 8
  %family.addr = alloca i32, align 4
  %port.addr = alloca i32, align 4
  %fd_start.addr = alloca i32, align 4
  %n.addr = alloca i32, align 4
  %i = alloca i32, align 4
  %r_inet = alloca i32, align 4
  %r_addr = alloca i32, align 4
  store ptr %s, ptr %s.addr, align 8
  store ptr %addr, ptr %addr.addr, align 8
  store i32 %family, ptr %family.addr, align 4
  store i32 %port, ptr %port.addr, align 4
  store i32 %fd_start, ptr %fd_start.addr, align 4
  store i32 %n, ptr %n.addr, align 4
  %0 = load i32, ptr %fd_start.addr, align 4
  store i32 %0, ptr %i, align 4
  br label %for.cond

for.cond:                                         ; preds = %for.inc, %entry
  %1 = load i32, ptr %i, align 4
  %2 = load i32, ptr %fd_start.addr, align 4
  %3 = load i32, ptr %n.addr, align 4
  %add = add nsw i32 %2, %3
  %cmp = icmp slt i32 %1, %add
  br i1 %cmp, label %for.body, label %for.end

for.body:                                         ; preds = %for.cond
  %4 = load i32, ptr %i, align 4
  %5 = load i32, ptr %family.addr, align 4
  %6 = load i32, ptr %port.addr, align 4
  %conv = trunc i32 %6 to i16
  %call = call i32 @sd_is_socket_inet(i32 noundef %4, i32 noundef %5, i32 noundef 1, i32 noundef 1, i16 noundef zeroext %conv)
  store i32 %call, ptr %r_inet, align 4
  %7 = load i32, ptr %i, align 4
  %8 = load ptr, ptr %addr.addr, align 8
  %addr1 = getelementptr inbounds %struct.grpc_resolved_address, ptr %8, i32 0, i32 0
  %arraydecay = getelementptr inbounds [128 x i8], ptr %addr1, i64 0, i64 0
  %9 = load ptr, ptr %addr.addr, align 8
  %len = getelementptr inbounds %struct.grpc_resolved_address, ptr %9, i32 0, i32 1
  %10 = load i32, ptr %len, align 4
  %call2 = call i32 @sd_is_socket_sockaddr(i32 noundef %7, i32 noundef 1, ptr noundef %arraydecay, i32 noundef %10, i32 noundef 1)
  store i32 %call2, ptr %r_addr, align 4
  %11 = load i32, ptr %r_inet, align 4
  %cmp3 = icmp sgt i32 %11, 0
  br i1 %cmp3, label %land.lhs.true, label %if.end

land.lhs.true:                                    ; preds = %for.body
  %12 = load i32, ptr %r_addr, align 4
  %cmp4 = icmp sgt i32 %12, 0
  br i1 %cmp4, label %if.then, label %if.end

if.then:                                          ; preds = %land.lhs.true
  %13 = load ptr, ptr %s.addr, align 8
  %14 = load i32, ptr %i, align 4
  call void @_Z36grpc_tcp_server_set_pre_allocated_fdP15grpc_tcp_serveri(ptr noundef %13, i32 noundef %14)
  store i1 true, ptr %retval, align 1
  br label %return

if.end:                                           ; preds = %land.lhs.true, %for.body
  br label %for.inc

for.inc:                                          ; preds = %if.end
  %15 = load i32, ptr %i, align 4
  %inc = add nsw i32 %15, 1
  store i32 %inc, ptr %i, align 4
  br label %for.cond, !llvm.loop !6

for.end:                                          ; preds = %for.cond
  store i1 false, ptr %retval, align 1
  br label %return

return:                                           ; preds = %for.end, %if.then
  %16 = load i1, ptr %retval, align 1
  ret i1 %16
}

; Function Attrs: mustprogress uwtable
define void @_Z19set_matching_sd_fdsP15grpc_tcp_serverPK21grpc_resolved_addressi(ptr noundef %s, ptr noundef %addr, i32 noundef %requested_port) #4 {
entry:
  %s.addr = alloca ptr, align 8
  %addr.addr = alloca ptr, align 8
  %requested_port.addr = alloca i32, align 4
  %n = alloca i32, align 4
  %fd_start = alloca i32, align 4
  %addr6_v4mapped = alloca %struct.grpc_resolved_address, align 4
  %family = alloca i32, align 4
  %port = alloca i32, align 4
  %wild4 = alloca %struct.grpc_resolved_address, align 4
  %wild6 = alloca %struct.grpc_resolved_address, align 4
  %wildcard_addrs = alloca [2 x %struct.grpc_resolved_address], align 16
  %__range3 = alloca ptr, align 8
  %__begin3 = alloca ptr, align 8
  %__end3 = alloca ptr, align 8
  %addr_w = alloca %struct.grpc_resolved_address, align 4
  %family_w = alloca i32, align 4
  %port_w = alloca i32, align 4
  store ptr %s, ptr %s.addr, align 8
  store ptr %addr, ptr %addr.addr, align 8
  store i32 %requested_port, ptr %requested_port.addr, align 4
  %call = call i32 @sd_listen_fds(i32 noundef 0)
  store i32 %call, ptr %n, align 4
  %0 = load i32, ptr %n, align 4
  %cmp = icmp sle i32 %0, 0
  br i1 %cmp, label %if.then, label %if.end

if.then:                                          ; preds = %entry
  br label %if.end22

if.end:                                           ; preds = %entry
  store i32 3, ptr %fd_start, align 4
  %1 = load ptr, ptr %addr.addr, align 8
  %call1 = call noundef i32 @_Z25grpc_sockaddr_to_v4mappedPK21grpc_resolved_addressPS_(ptr noundef %1, ptr noundef %addr6_v4mapped)
  %tobool = icmp ne i32 %call1, 0
  br i1 %tobool, label %if.then2, label %if.end3

if.then2:                                         ; preds = %if.end
  store ptr %addr6_v4mapped, ptr %addr.addr, align 8
  br label %if.end3

if.end3:                                          ; preds = %if.then2, %if.end
  %2 = load ptr, ptr %addr.addr, align 8
  %call4 = call noundef i32 @_Z24grpc_sockaddr_get_familyPK21grpc_resolved_address(ptr noundef %2)
  store i32 %call4, ptr %family, align 4
  %3 = load ptr, ptr %addr.addr, align 8
  %call5 = call noundef i32 @_Z22grpc_sockaddr_get_portPK21grpc_resolved_address(ptr noundef %3)
  store i32 %call5, ptr %port, align 4
  %4 = load i32, ptr %family, align 4
  %cmp6 = icmp eq i32 %4, 1
  br i1 %cmp6, label %if.then7, label %if.else

if.then7:                                         ; preds = %if.end3
  %5 = load ptr, ptr %s.addr, align 8
  %6 = load ptr, ptr %addr.addr, align 8
  %7 = load i32, ptr %fd_start, align 4
  %8 = load i32, ptr %n, align 4
  %call8 = call noundef zeroext i1 @_Z23set_matching_sd_unix_fdP15grpc_tcp_serverPK21grpc_resolved_addressii(ptr noundef %5, ptr noundef %6, i32 noundef %7, i32 noundef %8)
  br label %if.end22

if.else:                                          ; preds = %if.end3
  %9 = load ptr, ptr %addr.addr, align 8
  %call9 = call noundef i32 @_Z25grpc_sockaddr_is_wildcardPK21grpc_resolved_addressPi(ptr noundef %9, ptr noundef %requested_port.addr)
  %tobool10 = icmp ne i32 %call9, 0
  br i1 %tobool10, label %if.then11, label %if.end20

if.then11:                                        ; preds = %if.else
  %10 = load i32, ptr %requested_port.addr, align 4
  call void @_Z28grpc_sockaddr_make_wildcardsiP21grpc_resolved_addressS0_(i32 noundef %10, ptr noundef %wild4, ptr noundef %wild6)
  %arrayidx = getelementptr inbounds [2 x %struct.grpc_resolved_address], ptr %wildcard_addrs, i64 0, i64 0
  call void @llvm.memcpy.p0.p0.i64(ptr align 16 %arrayidx, ptr align 4 %wild4, i64 132, i1 false)
  %arrayidx12 = getelementptr inbounds [2 x %struct.grpc_resolved_address], ptr %wildcard_addrs, i64 0, i64 1
  call void @llvm.memcpy.p0.p0.i64(ptr align 4 %arrayidx12, ptr align 4 %wild6, i64 132, i1 false)
  store ptr %wildcard_addrs, ptr %__range3, align 8
  %11 = load ptr, ptr %__range3, align 8
  %arraydecay = getelementptr inbounds [2 x %struct.grpc_resolved_address], ptr %11, i64 0, i64 0
  store ptr %arraydecay, ptr %__begin3, align 8
  %12 = load ptr, ptr %__range3, align 8
  %arraydecay13 = getelementptr inbounds [2 x %struct.grpc_resolved_address], ptr %12, i64 0, i64 0
  %add.ptr = getelementptr inbounds %struct.grpc_resolved_address, ptr %arraydecay13, i64 2
  store ptr %add.ptr, ptr %__end3, align 8
  br label %for.cond

for.cond:                                         ; preds = %for.inc, %if.then11
  %13 = load ptr, ptr %__begin3, align 8
  %14 = load ptr, ptr %__end3, align 8
  %cmp14 = icmp ne ptr %13, %14
  br i1 %cmp14, label %for.body, label %for.end

for.body:                                         ; preds = %for.cond
  %15 = load ptr, ptr %__begin3, align 8
  call void @llvm.memcpy.p0.p0.i64(ptr align 4 %addr_w, ptr align 4 %15, i64 132, i1 false)
  %call15 = call noundef i32 @_Z24grpc_sockaddr_get_familyPK21grpc_resolved_address(ptr noundef %addr_w)
  store i32 %call15, ptr %family_w, align 4
  %call16 = call noundef i32 @_Z22grpc_sockaddr_get_portPK21grpc_resolved_address(ptr noundef %addr_w)
  store i32 %call16, ptr %port_w, align 4
  %16 = load ptr, ptr %s.addr, align 8
  %17 = load i32, ptr %family_w, align 4
  %18 = load i32, ptr %port_w, align 4
  %19 = load i32, ptr %fd_start, align 4
  %20 = load i32, ptr %n, align 4
  %call17 = call noundef zeroext i1 @_Z23set_matching_sd_inet_fdP15grpc_tcp_serverPK21grpc_resolved_addressiiii(ptr noundef %16, ptr noundef %addr_w, i32 noundef %17, i32 noundef %18, i32 noundef %19, i32 noundef %20)
  br i1 %call17, label %if.then18, label %if.end19

if.then18:                                        ; preds = %for.body
  br label %if.end22

if.end19:                                         ; preds = %for.body
  br label %for.inc

for.inc:                                          ; preds = %if.end19
  %21 = load ptr, ptr %__begin3, align 8
  %incdec.ptr = getelementptr inbounds %struct.grpc_resolved_address, ptr %21, i32 1
  store ptr %incdec.ptr, ptr %__begin3, align 8
  br label %for.cond

for.end:                                          ; preds = %for.cond
  br label %if.end22

if.end20:                                         ; preds = %if.else
  %22 = load ptr, ptr %s.addr, align 8
  %23 = load ptr, ptr %addr.addr, align 8
  %24 = load i32, ptr %family, align 4
  %25 = load i32, ptr %port, align 4
  %26 = load i32, ptr %fd_start, align 4
  %27 = load i32, ptr %n, align 4
  %call21 = call noundef zeroext i1 @_Z23set_matching_sd_inet_fdP15grpc_tcp_serverPK21grpc_resolved_addressiiii(ptr noundef %22, ptr noundef %23, i32 noundef %24, i32 noundef %25, i32 noundef %26, i32 noundef %27)
  br label %if.end22

if.end22:                                         ; preds = %if.end20, %for.end, %if.then18, %if.then7, %if.then
  ret void
}