; Function Attrs: mustprogress uwtable
define void @_Z19set_matching_sd_fdsP15grpc_tcp_serverPK21grpc_resolved_addressi(ptr noundef %s, ptr noundef %addr, i32 noundef %requested_port) local_unnamed_addr #3 {
entry:
  %requested_port.addr = alloca i32, align 4
  %addr6_v4mapped = alloca %struct.grpc_resolved_address, align 4
  %wild4 = alloca %struct.grpc_resolved_address, align 4
  %wild6 = alloca %struct.grpc_resolved_address, align 4
  %wildcard_addrs = alloca [2 x %struct.grpc_resolved_address], align 16
  %addr_w = alloca %struct.grpc_resolved_address, align 4
  store i32 %requested_port, ptr %requested_port.addr, align 4
  %call = tail call i32 @sd_listen_fds(i32 noundef 0)
  %cmp = icmp slt i32 %call, 1
  br i1 %cmp, label %if.end22, label %if.end

if.end:                                           ; preds = %entry
  %call1 = call noundef i32 @_Z25grpc_sockaddr_to_v4mappedPK21grpc_resolved_addressPS_(ptr noundef %addr, ptr noundef nonnull %addr6_v4mapped)
  %tobool.not = icmp eq i32 %call1, 0
  %spec.select = select i1 %tobool.not, ptr %addr, ptr %addr6_v4mapped
  %call4 = call noundef i32 @_Z24grpc_sockaddr_get_familyPK21grpc_resolved_address(ptr noundef %spec.select)
  %call5 = call noundef i32 @_Z22grpc_sockaddr_get_portPK21grpc_resolved_address(ptr noundef %spec.select)
  %cmp6 = icmp eq i32 %call4, 1
  br i1 %cmp6, label %if.then7, label %if.else

if.then7:                                         ; preds = %if.end
  %call8 = call noundef zeroext i1 @_Z23set_matching_sd_unix_fdP15grpc_tcp_serverPK21grpc_resolved_addressii(ptr noundef %s, ptr noundef %spec.select, i32 noundef 3, i32 noundef %call)
  br label %if.end22

if.else:                                          ; preds = %if.end
  %call9 = call noundef i32 @_Z25grpc_sockaddr_is_wildcardPK21grpc_resolved_addressPi(ptr noundef %spec.select, ptr noundef nonnull %requested_port.addr)
  %tobool10.not = icmp eq i32 %call9, 0
  br i1 %tobool10.not, label %for.body.lr.ph.i20, label %if.then11

if.then11:                                        ; preds = %if.else
  %0 = load i32, ptr %requested_port.addr, align 4
  call void @_Z28grpc_sockaddr_make_wildcardsiP21grpc_resolved_addressS0_(i32 noundef %0, ptr noundef nonnull %wild4, ptr noundef nonnull %wild6)
  call void @llvm.memcpy.p0.p0.i64(ptr noundef nonnull align 16 dereferenceable(132) %wildcard_addrs, ptr noundef nonnull align 4 dereferenceable(132) %wild4, i64 132, i1 false)
  %arrayidx12 = getelementptr inbounds i8, ptr %wildcard_addrs, i64 132
  call void @llvm.memcpy.p0.p0.i64(ptr noundef nonnull align 4 dereferenceable(132) %arrayidx12, ptr noundef nonnull align 4 dereferenceable(132) %wild6, i64 132, i1 false)
  %len.i = getelementptr inbounds i8, ptr %addr_w, i64 128
  %1 = add nuw i32 %call, 2
  %smax = call i32 @llvm.smax.i32(i32 %1, i32 3)
  br label %for.body

for.body:                                         ; preds = %if.then11, %for.inc
  %__begin3.0.idx39 = phi i64 [ 0, %if.then11 ], [ %__begin3.0.add, %for.inc ]
  %__begin3.0.ptr = getelementptr inbounds i8, ptr %wildcard_addrs, i64 %__begin3.0.idx39
  call void @llvm.memcpy.p0.p0.i64(ptr noundef nonnull align 4 dereferenceable(132) %addr_w, ptr noundef nonnull align 4 dereferenceable(132) %__begin3.0.ptr, i64 132, i1 false)
  %call15 = call noundef i32 @_Z24grpc_sockaddr_get_familyPK21grpc_resolved_address(ptr noundef nonnull %addr_w)
  %call16 = call noundef i32 @_Z22grpc_sockaddr_get_portPK21grpc_resolved_address(ptr noundef nonnull %addr_w)
  %conv.i = trunc i32 %call16 to i16
  br label %for.body.i

for.body.i:                                       ; preds = %for.inc.i, %for.body
  %i.011.i = phi i32 [ 3, %for.body ], [ %inc.i, %for.inc.i ]
  %call.i = call i32 @sd_is_socket_inet(i32 noundef %i.011.i, i32 noundef %call15, i32 noundef 1, i32 noundef 1, i16 noundef zeroext %conv.i)
  %2 = load i32, ptr %len.i, align 4
  %call2.i = call i32 @sd_is_socket_sockaddr(i32 noundef %i.011.i, i32 noundef 1, ptr noundef nonnull %addr_w, i32 noundef %2, i32 noundef 1)
  %cmp3.i = icmp sgt i32 %call.i, 0
  %cmp4.i = icmp sgt i32 %call2.i, 0
  %or.cond.i = select i1 %cmp3.i, i1 %cmp4.i, i1 false
  br i1 %or.cond.i, label %_Z23set_matching_sd_inet_fdP15grpc_tcp_serverPK21grpc_resolved_addressiiii.exit, label %for.inc.i

for.inc.i:                                        ; preds = %for.body.i
  %inc.i = add nuw i32 %i.011.i, 1
  %exitcond.not = icmp eq i32 %i.011.i, %smax
  br i1 %exitcond.not, label %for.inc, label %for.body.i, !llvm.loop !6

_Z23set_matching_sd_inet_fdP15grpc_tcp_serverPK21grpc_resolved_addressiiii.exit: ; preds = %for.body.i
  call void @_Z36grpc_tcp_server_set_pre_allocated_fdP15grpc_tcp_serveri(ptr noundef %s, i32 noundef %i.011.i)
  br label %if.end22

for.inc:                                          ; preds = %for.inc.i
  %__begin3.0.add = add nuw nsw i64 %__begin3.0.idx39, 132
  %cmp14.not = icmp eq i64 %__begin3.0.add, 264
  br i1 %cmp14.not, label %if.end22, label %for.body

for.body.lr.ph.i20:                               ; preds = %if.else
  %conv.i21 = trunc i32 %call5 to i16
  %spec.select.sroa.sel.v.sroa.sel.v.sroa.sel.v = select i1 %tobool.not, ptr %addr, ptr %addr6_v4mapped
  %spec.select.sroa.sel.v.sroa.sel.v.sroa.sel = getelementptr inbounds i8, ptr %spec.select.sroa.sel.v.sroa.sel.v.sroa.sel.v, i64 128
  %3 = add nuw i32 %call, 2
  %smax43 = call i32 @llvm.smax.i32(i32 %3, i32 3)
  br label %for.body.i23

for.body.i23:                                     ; preds = %for.inc.i30, %for.body.lr.ph.i20
  %i.011.i24 = phi i32 [ 3, %for.body.lr.ph.i20 ], [ %inc.i31, %for.inc.i30 ]
  %call.i25 = call i32 @sd_is_socket_inet(i32 noundef %i.011.i24, i32 noundef %call4, i32 noundef 1, i32 noundef 1, i16 noundef zeroext %conv.i21)
  %4 = load i32, ptr %spec.select.sroa.sel.v.sroa.sel.v.sroa.sel, align 4
  %call2.i26 = call i32 @sd_is_socket_sockaddr(i32 noundef %i.011.i24, i32 noundef 1, ptr noundef %spec.select, i32 noundef %4, i32 noundef 1)
  %cmp3.i27 = icmp sgt i32 %call.i25, 0
  %cmp4.i28 = icmp sgt i32 %call2.i26, 0
  %or.cond.i29 = select i1 %cmp3.i27, i1 %cmp4.i28, i1 false
  br i1 %or.cond.i29, label %if.then.i33, label %for.inc.i30

if.then.i33:                                      ; preds = %for.body.i23
  call void @_Z36grpc_tcp_server_set_pre_allocated_fdP15grpc_tcp_serveri(ptr noundef %s, i32 noundef %i.011.i24)
  br label %if.end22

for.inc.i30:                                      ; preds = %for.body.i23
  %inc.i31 = add nuw i32 %i.011.i24, 1
  %exitcond44.not = icmp eq i32 %i.011.i24, %smax43
  br i1 %exitcond44.not, label %if.end22, label %for.body.i23, !llvm.loop !6

if.end22:                                         ; preds = %for.inc, %for.inc.i30, %if.then.i33, %_Z23set_matching_sd_inet_fdP15grpc_tcp_serverPK21grpc_resolved_addressiiii.exit, %entry, %if.then7
  ret void
}